target datalayout = "e-m:e-p270:32:32-p271:32:32-p272:64:64-i64:64-i128:128-f80:128-n8:16:32:64-S128"
target triple = "x86_64-pc-linux-gnu"

%struct.OSSL_TIME = type { i64 }
%struct.timeval = type { i64, i64 }

@using_fake_time = internal global i32 0, align 4

; Function Attrs: inlinehint nounwind uwtable
define internal i32 @ossl_time_compare(i64 %0, i64 %1) #5 {
  %3 = alloca i32, align 4
  %4 = alloca %struct.OSSL_TIME, align 8
  %5 = alloca %struct.OSSL_TIME, align 8
  %6 = getelementptr inbounds nuw %struct.OSSL_TIME, ptr %4, i32 0, i32 0
  store i64 %0, ptr %6, align 8
  %7 = getelementptr inbounds nuw %struct.OSSL_TIME, ptr %5, i32 0, i32 0
  store i64 %1, ptr %7, align 8
  %8 = getelementptr inbounds nuw %struct.OSSL_TIME, ptr %4, i32 0, i32 0
  %9 = load i64, ptr %8, align 8, !tbaa !72
  %10 = getelementptr inbounds nuw %struct.OSSL_TIME, ptr %5, i32 0, i32 0
  %11 = load i64, ptr %10, align 8, !tbaa !72
  %12 = icmp ugt i64 %9, %11
  br i1 %12, label %13, label %14

13:                                               ; preds = %2
  store i32 1, ptr %3, align 4
  br label %22

14:                                               ; preds = %2
  %15 = getelementptr inbounds nuw %struct.OSSL_TIME, ptr %4, i32 0, i32 0
  %16 = load i64, ptr %15, align 8, !tbaa !72
  %17 = getelementptr inbounds nuw %struct.OSSL_TIME, ptr %5, i32 0, i32 0
  %18 = load i64, ptr %17, align 8, !tbaa !72
  %19 = icmp ult i64 %16, %18
  br i1 %19, label %20, label %21

20:                                               ; preds = %14
  store i32 -1, ptr %3, align 4
  br label %22

21:                                               ; preds = %14
  store i32 0, ptr %3, align 4
  br label %22

22:                                               ; preds = %21, %20, %13
  %23 = load i32, ptr %3, align 4
  ret i32 %23
}

; Function Attrs: inlinehint nounwind uwtable
define internal i64 @safe_sub_time(i64 noundef %0, i64 noundef %1, ptr noundef %2) #5 {
  %4 = alloca i64, align 8
  %5 = alloca i64, align 8
  %6 = alloca ptr, align 8
  store i64 %0, ptr %4, align 8, !tbaa !62
  store i64 %1, ptr %5, align 8, !tbaa !62
  store ptr %2, ptr %6, align 8, !tbaa !127
  %7 = load i64, ptr %5, align 8, !tbaa !62
  %8 = load i64, ptr %4, align 8, !tbaa !62
  %9 = icmp ugt i64 %7, %8
  br i1 %9, label %10, label %14

10:                                               ; preds = %3
  %11 = load ptr, ptr %6, align 8, !tbaa !127
  %12 = load i32, ptr %11, align 4, !tbaa !13
  %13 = or i32 %12, 1
  store i32 %13, ptr %11, align 4, !tbaa !13
  br label %14

14:                                               ; preds = %10, %3
  %15 = load i64, ptr %4, align 8, !tbaa !62
  %16 = load i64, ptr %5, align 8, !tbaa !62
  %17 = sub i64 %15, %16
  ret i64 %17
}

; Function Attrs: inlinehint nounwind uwtable
define internal i64 @ossl_time_zero() #5 {
  %1 = alloca %struct.OSSL_TIME, align 8
  %2 = call i64 @ossl_ticks2time(i64 noundef 0)
  %3 = getelementptr inbounds nuw %struct.OSSL_TIME, ptr %1, i32 0, i32 0
  store i64 %2, ptr %3, align 8
  %4 = getelementptr inbounds nuw %struct.OSSL_TIME, ptr %1, i32 0, i32 0
  %5 = load i64, ptr %4, align 8
  ret i64 %5
}

; Function Attrs: inlinehint nounwind uwtable
define internal i64 @ossl_ticks2time(i64 noundef %0) #5 {
  %2 = alloca %struct.OSSL_TIME, align 8
  %3 = alloca i64, align 8
  store i64 %0, ptr %3, align 8, !tbaa !62
  %4 = load i64, ptr %3, align 8, !tbaa !62
  %5 = getelementptr inbounds nuw %struct.OSSL_TIME, ptr %2, i32 0, i32 0
  store i64 %4, ptr %5, align 8, !tbaa !72
  %6 = getelementptr inbounds nuw %struct.OSSL_TIME, ptr %2, i32 0, i32 0
  %7 = load i64, ptr %6, align 8
  ret i64 %7
}

; Function Attrs: inlinehint nounwind uwtable
define internal i64 @ossl_time2ticks(i64 %0) #5 {
  %2 = alloca %struct.OSSL_TIME, align 8
  %3 = getelementptr inbounds nuw %struct.OSSL_TIME, ptr %2, i32 0, i32 0
  store i64 %0, ptr %3, align 8
  %4 = getelementptr inbounds nuw %struct.OSSL_TIME, ptr %2, i32 0, i32 0
  %5 = load i64, ptr %4, align 8, !tbaa !72
  ret i64 %5
}

; Function Attrs: inlinehint nounwind uwtable
define internal i32 @ossl_time_is_infinite(i64 %0) #5 {
  %2 = alloca %struct.OSSL_TIME, align 8
  %3 = alloca %struct.OSSL_TIME, align 8
  %4 = getelementptr inbounds nuw %struct.OSSL_TIME, ptr %2, i32 0, i32 0
  store i64 %0, ptr %4, align 8
  %5 = call i64 @ossl_time_infinite()
  %6 = getelementptr inbounds nuw %struct.OSSL_TIME, ptr %3, i32 0, i32 0
  store i64 %5, ptr %6, align 8
  %7 = getelementptr inbounds nuw %struct.OSSL_TIME, ptr %2, i32 0, i32 0
  %8 = load i64, ptr %7, align 8
  %9 = getelementptr inbounds nuw %struct.OSSL_TIME, ptr %3, i32 0, i32 0
  %10 = load i64, ptr %9, align 8
  %11 = call i32 @ossl_time_compare(i64 %8, i64 %10)
  %12 = icmp eq i32 %11, 0
  %13 = zext i1 %12 to i32
  ret i32 %13
}

; Function Attrs: inlinehint nounwind uwtable
define internal i64 @ossl_time_min(i64 %0, i64 %1) #5 {
  %3 = alloca %struct.OSSL_TIME, align 8
  %4 = alloca %struct.OSSL_TIME, align 8
  %5 = alloca %struct.OSSL_TIME, align 8
  %6 = getelementptr inbounds nuw %struct.OSSL_TIME, ptr %4, i32 0, i32 0
  store i64 %0, ptr %6, align 8
  %7 = getelementptr inbounds nuw %struct.OSSL_TIME, ptr %5, i32 0, i32 0
  store i64 %1, ptr %7, align 8
  %8 = getelementptr inbounds nuw %struct.OSSL_TIME, ptr %4, i32 0, i32 0
  %9 = load i64, ptr %8, align 8, !tbaa !72
  %10 = getelementptr inbounds nuw %struct.OSSL_TIME, ptr %5, i32 0, i32 0
  %11 = load i64, ptr %10, align 8, !tbaa !72
  %12 = icmp ult i64 %9, %11
  br i1 %12, label %13, label %14

13:                                               ; preds = %2
  call void @llvm.memcpy.p0.p0.i64(ptr align 8 %3, ptr align 8 %4, i64 8, i1 false), !tbaa.struct !71
  br label %15

14:                                               ; preds = %2
  call void @llvm.memcpy.p0.p0.i64(ptr align 8 %3, ptr align 8 %5, i64 8, i1 false), !tbaa.struct !71
  br label %15

15:                                               ; preds = %14, %13
  %16 = getelementptr inbounds nuw %struct.OSSL_TIME, ptr %3, i32 0, i32 0
  %17 = load i64, ptr %16, align 8
  ret i64 %17
}

; Function Attrs: inlinehint nounwind uwtable
define internal i64 @ossl_time_subtract(i64 %0, i64 %1) #5 {
  %3 = alloca %struct.OSSL_TIME, align 8
  %4 = alloca %struct.OSSL_TIME, align 8
  %5 = alloca %struct.OSSL_TIME, align 8
  %6 = alloca %struct.OSSL_TIME, align 8
  %7 = alloca i32, align 4
  %8 = getelementptr inbounds nuw %struct.OSSL_TIME, ptr %4, i32 0, i32 0
  store i64 %0, ptr %8, align 8
  %9 = getelementptr inbounds nuw %struct.OSSL_TIME, ptr %5, i32 0, i32 0
  store i64 %1, ptr %9, align 8
  call void @llvm.lifetime.start.p0(i64 8, ptr %6) #8
  call void @llvm.lifetime.start.p0(i64 4, ptr %7) #8
  store i32 0, ptr %7, align 4, !tbaa !13
  %10 = getelementptr inbounds nuw %struct.OSSL_TIME, ptr %4, i32 0, i32 0
  %11 = load i64, ptr %10, align 8, !tbaa !72
  %12 = getelementptr inbounds nuw %struct.OSSL_TIME, ptr %5, i32 0, i32 0
  %13 = load i64, ptr %12, align 8, !tbaa !72
  %14 = call i64 @safe_sub_time(i64 noundef %11, i64 noundef %13, ptr noundef %7)
  %15 = getelementptr inbounds nuw %struct.OSSL_TIME, ptr %6, i32 0, i32 0
  store i64 %14, ptr %15, align 8, !tbaa !72
  %16 = load i32, ptr %7, align 4, !tbaa !13
  %17 = icmp ne i32 %16, 0
  br i1 %17, label %18, label %21

18:                                               ; preds = %2
  %19 = call i64 @ossl_time_zero()
  %20 = getelementptr inbounds nuw %struct.OSSL_TIME, ptr %3, i32 0, i32 0
  store i64 %19, ptr %20, align 8
  br label %22

21:                                               ; preds = %2
  call void @llvm.memcpy.p0.p0.i64(ptr align 8 %3, ptr align 8 %6, i64 8, i1 false), !tbaa.struct !71
  br label %22

22:                                               ; preds = %21, %18
  call void @llvm.lifetime.end.p0(i64 4, ptr %7) #8
  call void @llvm.lifetime.end.p0(i64 8, ptr %6) #8
  %23 = getelementptr inbounds nuw %struct.OSSL_TIME, ptr %3, i32 0, i32 0
  %24 = load i64, ptr %23, align 8
  ret i64 %24
}

; Function Attrs: inlinehint nounwind uwtable
define internal i64 @ossl_time_from_timeval(i64 %0, i64 %1) #5 {
  %3 = alloca %struct.OSSL_TIME, align 8
  %4 = alloca %struct.timeval, align 8
  %5 = alloca %struct.OSSL_TIME, align 8
  %6 = alloca i32, align 4
  %7 = getelementptr inbounds nuw { i64, i64 }, ptr %4, i32 0, i32 0
  store i64 %0, ptr %7, align 8
  %8 = getelementptr inbounds nuw { i64, i64 }, ptr %4, i32 0, i32 1
  store i64 %1, ptr %8, align 8
  call void @llvm.lifetime.start.p0(i64 8, ptr %5) #8
  %9 = getelementptr inbounds nuw %struct.timeval, ptr %4, i32 0, i32 0
  %10 = load i64, ptr %9, align 8, !tbaa !74
  %11 = icmp slt i64 %10, 0
  br i1 %11, label %12, label %15

12:                                               ; preds = %2
  %13 = call i64 @ossl_time_zero()
  %14 = getelementptr inbounds nuw %struct.OSSL_TIME, ptr %3, i32 0, i32 0
  store i64 %13, ptr %14, align 8
  store i32 1, ptr %6, align 4
  br label %24

15:                                               ; preds = %2
  %16 = getelementptr inbounds nuw %struct.timeval, ptr %4, i32 0, i32 0
  %17 = load i64, ptr %16, align 8, !tbaa !74
  %18 = mul i64 %17, 1000000000
  %19 = getelementptr inbounds nuw %struct.timeval, ptr %4, i32 0, i32 1
  %20 = load i64, ptr %19, align 8, !tbaa !76
  %21 = mul i64 %20, 1000
  %22 = add i64 %18, %21
  %23 = getelementptr inbounds nuw %struct.OSSL_TIME, ptr %5, i32 0, i32 0
  store i64 %22, ptr %23, align 8, !tbaa !72
  call void @llvm.memcpy.p0.p0.i64(ptr align 8 %3, ptr align 8 %5, i64 8, i1 false), !tbaa.struct !71
  store i32 1, ptr %6, align 4
  br label %24

24:                                               ; preds = %15, %12
  call void @llvm.lifetime.end.p0(i64 8, ptr %5) #8
  %25 = getelementptr inbounds nuw %struct.OSSL_TIME, ptr %3, i32 0, i32 0
  %26 = load i64, ptr %25, align 8
  ret i64 %26
}

; Function Attrs: inlinehint nounwind uwtable
define internal i64 @ossl_time_infinite() #5 {
  %1 = alloca %struct.OSSL_TIME, align 8
  %2 = call i64 @ossl_ticks2time(i64 noundef -1)
  %3 = getelementptr inbounds nuw %struct.OSSL_TIME, ptr %1, i32 0, i32 0
  store i64 %2, ptr %3, align 8
  %4 = getelementptr inbounds nuw %struct.OSSL_TIME, ptr %1, i32 0, i32 0
  %5 = load i64, ptr %4, align 8
  ret i64 %5
}

; Function Attrs: nounwind uwtable
define dso_local i32 @qtest_wait_for_timeout(ptr noundef %0, ptr noundef %1) #0 {
  %3 = alloca i32, align 4
  %4 = alloca ptr, align 8
  %5 = alloca ptr, align 8
  %6 = alloca %struct.timeval, align 8
  %7 = alloca %struct.OSSL_TIME, align 8
  %8 = alloca %struct.OSSL_TIME, align 8
  %9 = alloca %struct.OSSL_TIME, align 8
  %10 = alloca %struct.OSSL_TIME, align 8
  %11 = alloca i32, align 4
  %12 = alloca i32, align 4
  %13 = alloca %struct.OSSL_TIME, align 8
  %14 = alloca %struct.OSSL_TIME, align 8
  %15 = alloca %struct.OSSL_TIME, align 8
  %16 = alloca i1, align 1
  %17 = alloca %struct.OSSL_TIME, align 8
  %18 = alloca i1, align 1
  %19 = alloca %struct.OSSL_TIME, align 8
  %20 = alloca %struct.OSSL_TIME, align 8
  %21 = alloca %struct.OSSL_TIME, align 8
  store ptr %0, ptr %4, align 8, !tbaa !31
  store ptr %1, ptr %5, align 8, !tbaa !29
  call void @llvm.lifetime.start.p0(i64 16, ptr %6) #8
  call void @llvm.lifetime.start.p0(i64 8, ptr %7) #8
  call void @llvm.lifetime.start.p0(i64 8, ptr %8) #8
  call void @llvm.lifetime.start.p0(i64 8, ptr %9) #8
  call void @llvm.lifetime.start.p0(i64 8, ptr %10) #8
  call void @llvm.lifetime.start.p0(i64 4, ptr %11) #8
  %22 = load ptr, ptr %4, align 8, !tbaa !31
  %23 = icmp eq ptr %22, null
  br i1 %23, label %28, label %24

24:                                               ; preds = %2
  %25 = load ptr, ptr %4, align 8, !tbaa !31
  %26 = call i32 @SSL_get_blocking_mode(ptr noundef %25)
  %27 = icmp ne i32 %26, 0
  br i1 %27, label %28, label %29

28:                                               ; preds = %24, %2
  store i32 1, ptr %3, align 4
  store i32 1, ptr %12, align 4
  br label %104

29:                                               ; preds = %24
  %30 = load ptr, ptr %4, align 8, !tbaa !31
  %31 = call ptr @SSL_get_rbio(ptr noundef %30)
  %32 = call i64 @BIO_ctrl(ptr noundef %31, i32 noundef 10, i64 noundef 0, ptr noundef null)
  %33 = trunc i64 %32 to i32
  %34 = icmp sgt i32 %33, 0
  br i1 %34, label %41, label %35

35:                                               ; preds = %29
  %36 = load ptr, ptr %5, align 8, !tbaa !29
  %37 = call ptr @ossl_quic_tserver_get0_rbio(ptr noundef %36)
  %38 = call i64 @BIO_ctrl(ptr noundef %37, i32 noundef 10, i64 noundef 0, ptr noundef null)
  %39 = trunc i64 %38 to i32
  %40 = icmp sgt i32 %39, 0
  br i1 %40, label %41, label %42

41:                                               ; preds = %35, %29
  store i32 1, ptr %3, align 4
  store i32 1, ptr %12, align 4
  br label %104

42:                                               ; preds = %35
  %43 = load ptr, ptr %4, align 8, !tbaa !31
  %44 = call i32 @SSL_get_event_timeout(ptr noundef %43, ptr noundef %6, ptr noundef %11)
  %45 = icmp ne i32 %44, 0
  br i1 %45, label %47, label %46

46:                                               ; preds = %42
  store i32 0, ptr %3, align 4
  store i32 1, ptr %12, align 4
  br label %104

47:                                               ; preds = %42
  %48 = load i32, ptr @using_fake_time, align 4, !tbaa !13
  %49 = icmp ne i32 %48, 0
  br i1 %49, label %50, label %53

50:                                               ; preds = %47
  call void @llvm.lifetime.start.p0(i64 8, ptr %13) #8
  %51 = call i64 @qtest_get_time()
  %52 = getelementptr inbounds nuw %struct.OSSL_TIME, ptr %13, i32 0, i32 0
  store i64 %51, ptr %52, align 8
  call void @llvm.memcpy.p0.p0.i64(ptr align 8 %10, ptr align 8 %13, i64 8, i1 false), !tbaa.struct !71
  call void @llvm.lifetime.end.p0(i64 8, ptr %13) #8
  br label %56

53:                                               ; preds = %47
  call void @llvm.lifetime.start.p0(i64 8, ptr %14) #8
  %54 = call i64 @ossl_time_now()
  %55 = getelementptr inbounds nuw %struct.OSSL_TIME, ptr %14, i32 0, i32 0
  store i64 %54, ptr %55, align 8
  call void @llvm.memcpy.p0.p0.i64(ptr align 8 %10, ptr align 8 %14, i64 8, i1 false), !tbaa.struct !71
  call void @llvm.lifetime.end.p0(i64 8, ptr %14) #8
  br label %56

56:                                               ; preds = %53, %50
  %57 = load i32, ptr %11, align 4, !tbaa !13
  %58 = icmp ne i32 %57, 0
  store i1 false, ptr %16, align 1
  store i1 false, ptr %18, align 1
  br i1 %58, label %59, label %62

59:                                               ; preds = %56
  call void @llvm.lifetime.start.p0(i64 8, ptr %15) #8
  store i1 true, ptr %16, align 1
  %60 = call i64 @ossl_time_infinite()
  %61 = getelementptr inbounds nuw %struct.OSSL_TIME, ptr %15, i32 0, i32 0
  store i64 %60, ptr %61, align 8
  call void @llvm.memcpy.p0.p0.i64(ptr align 8 %7, ptr align 8 %15, i64 8, i1 false), !tbaa.struct !71
  call void @llvm.lifetime.end.p0(i64 8, ptr %15) #8
  br label %69

62:                                               ; preds = %56
  call void @llvm.lifetime.start.p0(i64 8, ptr %17) #8
  store i1 true, ptr %18, align 1
  %63 = getelementptr inbounds nuw { i64, i64 }, ptr %6, i32 0, i32 0
  %64 = load i64, ptr %63, align 8
  %65 = getelementptr inbounds nuw { i64, i64 }, ptr %6, i32 0, i32 1
  %66 = load i64, ptr %65, align 8
  %67 = call i64 @ossl_time_from_timeval(i64 %64, i64 %66)
  %68 = getelementptr inbounds nuw %struct.OSSL_TIME, ptr %17, i32 0, i32 0
  store i64 %67, ptr %68, align 8
  call void @llvm.memcpy.p0.p0.i64(ptr align 8 %7, ptr align 8 %17, i64 8, i1 false), !tbaa.struct !71
  call void @llvm.lifetime.end.p0(i64 8, ptr %17) #8
  br label %69

69:                                               ; preds = %62, %59
  call void @llvm.lifetime.start.p0(i64 8, ptr %19) #8
  %70 = load ptr, ptr %5, align 8, !tbaa !29
  %71 = call i64 @ossl_quic_tserver_get_deadline(ptr noundef %70)
  %72 = getelementptr inbounds nuw %struct.OSSL_TIME, ptr %20, i32 0, i32 0
  store i64 %71, ptr %72, align 8
  %73 = getelementptr inbounds nuw %struct.OSSL_TIME, ptr %20, i32 0, i32 0
  %74 = load i64, ptr %73, align 8
  %75 = getelementptr inbounds nuw %struct.OSSL_TIME, ptr %10, i32 0, i32 0
  %76 = load i64, ptr %75, align 8
  %77 = call i64 @ossl_time_subtract(i64 %74, i64 %76)
  %78 = getelementptr inbounds nuw %struct.OSSL_TIME, ptr %19, i32 0, i32 0
  store i64 %77, ptr %78, align 8
  call void @llvm.memcpy.p0.p0.i64(ptr align 8 %8, ptr align 8 %19, i64 8, i1 false), !tbaa.struct !71
  call void @llvm.lifetime.end.p0(i64 8, ptr %19) #8
  call void @llvm.lifetime.start.p0(i64 8, ptr %21) #8
  %79 = getelementptr inbounds nuw %struct.OSSL_TIME, ptr %7, i32 0, i32 0
  %80 = load i64, ptr %79, align 8
  %81 = getelementptr inbounds nuw %struct.OSSL_TIME, ptr %8, i32 0, i32 0
  %82 = load i64, ptr %81, align 8
  %83 = call i64 @ossl_time_min(i64 %80, i64 %82)
  %84 = getelementptr inbounds nuw %struct.OSSL_TIME, ptr %21, i32 0, i32 0
  store i64 %83, ptr %84, align 8
  call void @llvm.memcpy.p0.p0.i64(ptr align 8 %9, ptr align 8 %21, i64 8, i1 false), !tbaa.struct !71
  call void @llvm.lifetime.end.p0(i64 8, ptr %21) #8
  %85 = getelementptr inbounds nuw %struct.OSSL_TIME, ptr %9, i32 0, i32 0
  %86 = load i64, ptr %85, align 8
  %87 = call i32 @ossl_time_is_infinite(i64 %86)
  %88 = icmp ne i32 %87, 0
  br i1 %88, label %89, label %90

89:                                               ; preds = %69
  store i32 0, ptr %3, align 4
  store i32 1, ptr %12, align 4
  br label %104

90:                                               ; preds = %69
  %91 = load i32, ptr @using_fake_time, align 4, !tbaa !13
  %92 = icmp ne i32 %91, 0
  br i1 %92, label %93, label %98

93:                                               ; preds = %90
  %94 = getelementptr inbounds nuw %struct.OSSL_TIME, ptr %9, i32 0, i32 0
  %95 = load i64, ptr %94, align 8
  %96 = call i64 @ossl_time2ticks(i64 %95)
  %97 = udiv i64 %96, 1000000
  call void @qtest_add_time(i64 noundef %97)
  br label %103

98:                                               ; preds = %90
  %99 = getelementptr inbounds nuw %struct.OSSL_TIME, ptr %9, i32 0, i32 0
  %100 = load i64, ptr %99, align 8
  %101 = call i64 @ossl_time2ticks(i64 %100)
  %102 = udiv i64 %101, 1000000
  call void @OSSL_sleep(i64 noundef %102)
  br label %103

103:                                              ; preds = %98, %93
  store i32 1, ptr %3, align 4
  store i32 1, ptr %12, align 4
  br label %104

104:                                              ; preds = %103, %89, %46, %41, %28
  call void @llvm.lifetime.end.p0(i64 4, ptr %11) #8
  call void @llvm.lifetime.end.p0(i64 8, ptr %10) #8
  call void @llvm.lifetime.end.p0(i64 8, ptr %9) #8
  call void @llvm.lifetime.end.p0(i64 8, ptr %8) #8
  call void @llvm.lifetime.end.p0(i64 8, ptr %7) #8
  call void @llvm.lifetime.end.p0(i64 16, ptr %6) #8
  %105 = load i32, ptr %3, align 4
  ret i32 %105
}