; Function Attrs: nounwind uwtable
define dso_local range(i32 0, 2) i32 @qtest_wait_for_timeout(ptr noundef %0, ptr noundef %1) local_unnamed_addr #0 {
  %3 = alloca %struct.timeval, align 8
  %4 = alloca i32, align 4
  call void @llvm.lifetime.start.p0(i64 16, ptr nonnull %3) #10
  call void @llvm.lifetime.start.p0(i64 4, ptr nonnull %4) #10
  %5 = icmp eq ptr %0, null
  br i1 %5, label %41, label %6

6:                                                ; preds = %2
  %7 = tail call i32 @SSL_get_blocking_mode(ptr noundef nonnull %0) #10
  %.not = icmp eq i32 %7, 0
  br i1 %.not, label %8, label %41

8:                                                ; preds = %6
  %9 = tail call ptr @SSL_get_rbio(ptr noundef nonnull %0) #10
  %10 = tail call i64 @BIO_ctrl(ptr noundef %9, i32 noundef 10, i64 noundef 0, ptr noundef null) #10
  %11 = trunc i64 %10 to i32
  %12 = icmp sgt i32 %11, 0
  br i1 %12, label %41, label %13

13:                                               ; preds = %8
  %14 = tail call ptr @ossl_quic_tserver_get0_rbio(ptr noundef %1) #10
  %15 = tail call i64 @BIO_ctrl(ptr noundef %14, i32 noundef 10, i64 noundef 0, ptr noundef null) #10
  %16 = trunc i64 %15 to i32
  %17 = icmp sgt i32 %16, 0
  br i1 %17, label %41, label %18

18:                                               ; preds = %13
  %19 = call i32 @SSL_get_event_timeout(ptr noundef nonnull %0, ptr noundef nonnull %3, ptr noundef nonnull %4) #10
  %.not20 = icmp eq i32 %19, 0
  br i1 %.not20, label %41, label %20

20:                                               ; preds = %18
  %.b19 = load i1, ptr @using_fake_time, align 4
  br i1 %.b19, label %21, label %23

21:                                               ; preds = %20
  %22 = call fastcc i64 @qtest_get_time()
  br label %25

23:                                               ; preds = %20
  %24 = call i64 @ossl_time_now() #10
  br label %25

25:                                               ; preds = %23, %21
  %.sroa.07.0 = phi i64 [ %22, %21 ], [ %24, %23 ]
  %26 = load i32, ptr %4, align 4, !tbaa !20
  %.not21 = icmp eq i32 %26, 0
  br i1 %.not21, label %27, label %ossl_time_from_timeval.exit

27:                                               ; preds = %25
  %28 = load i64, ptr %3, align 8
  %29 = icmp slt i64 %28, 0
  br i1 %29, label %ossl_time_from_timeval.exit, label %30

30:                                               ; preds = %27
  %31 = getelementptr inbounds nuw i8, ptr %3, i64 8
  %32 = load i64, ptr %31, align 8
  %33 = mul i64 %28, 1000000000
  %34 = mul i64 %32, 1000
  %35 = add i64 %34, %33
  br label %ossl_time_from_timeval.exit

ossl_time_from_timeval.exit:                      ; preds = %30, %27, %25
  %.sroa.012.0 = phi i64 [ -1, %25 ], [ %35, %30 ], [ 0, %27 ]
  %36 = call i64 @ossl_quic_tserver_get_deadline(ptr noundef %1) #10
  %..i = call i64 @llvm.usub.sat.i64(i64 %36, i64 %.sroa.07.0)
  %..i23 = call i64 @llvm.umin.i64(i64 %.sroa.012.0, i64 %..i)
  %.not24 = icmp eq i64 %..i23, -1
  br i1 %.not24, label %41, label %37

37:                                               ; preds = %ossl_time_from_timeval.exit
  %.b = load i1, ptr @using_fake_time, align 4
  %38 = udiv i64 %..i23, 1000000
  br i1 %.b, label %39, label %40

39:                                               ; preds = %37
  call void @qtest_add_time(i64 noundef %38)
  br label %41

40:                                               ; preds = %37
  call void @OSSL_sleep(i64 noundef %38) #10
  br label %41

41:                                               ; preds = %39, %40, %ossl_time_from_timeval.exit, %18, %8, %13, %2, %6
  %.0 = phi i32 [ 1, %6 ], [ 1, %2 ], [ 1, %13 ], [ 1, %8 ], [ 0, %18 ], [ 0, %ossl_time_from_timeval.exit ], [ 1, %40 ], [ 1, %39 ]
  call void @llvm.lifetime.end.p0(i64 4, ptr nonnull %4) #10
  call void @llvm.lifetime.end.p0(i64 16, ptr nonnull %3) #10
  ret i32 %.0
}